; Function Attrs: mustprogress uwtable
define dso_local void @_ZN4Luau16ConstraintSolver4bindENS_7NotNullIKNS_10ConstraintEEEPKNS_11TypePackVarES7_(ptr noundef nonnull align 8 dereferenceable(1032) %0, ptr readnone captures(none) %1, ptr noundef %2, ptr noundef %3) local_unnamed_addr #4 align 2 personality ptr @__gxx_personality_v0 {
  %5 = alloca %"class.Luau::Variant.198", align 8
  %6 = alloca ptr, align 8
  %7 = tail call noundef ptr @_ZN4Luau6followEPKNS_11TypePackVarE(ptr noundef %3)
  store ptr %7, ptr %6, align 8, !tbaa !171
  %8 = tail call noundef ptr @_ZN4Luau9asMutableEPKNS_11TypePackVarE(ptr noundef %2)
  %9 = call noundef ptr @_ZN4Luau15emplaceTypePackINS_9Unifiable5BoundIPKNS_11TypePackVarEEEJRS5_EEEPT_PS3_DpOT0_(ptr noundef %8, ptr noundef nonnull align 8 dereferenceable(8) %6)
  call void @llvm.lifetime.start.p0(i64 16, ptr nonnull %5)
  %10 = getelementptr inbounds nuw i8, ptr %0, i64 752
  %11 = load ptr, ptr %10, align 8, !tbaa !286
  %.not.i = icmp eq ptr %11, null
  br i1 %.not.i, label %13, label %12

12:                                               ; preds = %4
  call void @_ZN4Luau9DcrLogger8popBlockEPKNS_11TypePackVarE(ptr noundef nonnull align 8 dereferenceable(936) %11, ptr noundef %2)
  br label %13

13:                                               ; preds = %12, %4
  store i32 1, ptr %5, align 8, !tbaa !107
  %14 = getelementptr inbounds nuw i8, ptr %5, i64 8
  store ptr %2, ptr %14, align 8, !tbaa !171
  invoke void @_ZN4Luau16ConstraintSolver8unblock_ENS_7VariantIJPKNS_4TypeEPKNS_11TypePackVarEPKNS_10ConstraintEEEE(ptr noundef nonnull align 8 dereferenceable(1032) %0, ptr noundef nonnull %5)
          to label %15 unwind label %23

15:                                               ; preds = %13
  %16 = load i32, ptr %5, align 8, !tbaa !107
  %17 = sext i32 %16 to i64
  %18 = getelementptr inbounds [3 x ptr], ptr @_ZN4Luau7VariantIJPKNS_4TypeEPKNS_11TypePackVarEPKNS_10ConstraintEEE9tableDtorE, i64 0, i64 %17
  %19 = load ptr, ptr %18, align 8, !tbaa !15
  invoke void %19(ptr noundef nonnull %14)
          to label %_ZN4Luau16ConstraintSolver7unblockEPKNS_11TypePackVarENS_8LocationE.exit unwind label %20

20:                                               ; preds = %15
  %21 = landingpad { ptr, i32 }
          catch ptr null
  %22 = extractvalue { ptr, i32 } %21, 0
  call void @__clang_call_terminate(ptr %22) #32
  unreachable

23:                                               ; preds = %13
  %24 = landingpad { ptr, i32 }
          cleanup
  %25 = load i32, ptr %5, align 8, !tbaa !107
  %26 = sext i32 %25 to i64
  %27 = getelementptr inbounds [3 x ptr], ptr @_ZN4Luau7VariantIJPKNS_4TypeEPKNS_11TypePackVarEPKNS_10ConstraintEEE9tableDtorE, i64 0, i64 %26
  %28 = load ptr, ptr %27, align 8, !tbaa !15
  invoke void %28(ptr noundef nonnull %14)
          to label %_ZN4Luau7VariantIJPKNS_4TypeEPKNS_11TypePackVarEPKNS_10ConstraintEEED2Ev.exit2.i unwind label %29

29:                                               ; preds = %23
  %30 = landingpad { ptr, i32 }
          catch ptr null
  %31 = extractvalue { ptr, i32 } %30, 0
  call void @__clang_call_terminate(ptr %31) #32
  unreachable

_ZN4Luau7VariantIJPKNS_4TypeEPKNS_11TypePackVarEPKNS_10ConstraintEEED2Ev.exit2.i: ; preds = %23
  resume { ptr, i32 } %24

_ZN4Luau16ConstraintSolver7unblockEPKNS_11TypePackVarENS_8LocationE.exit: ; preds = %15
  call void @llvm.lifetime.end.p0(i64 16, ptr nonnull %5)
  ret void
}